; Function Attrs: mustprogress uwtable
define hidden noundef i32 @_ZN12fpa_rewriter5mk_gtEP4exprS1_R7obj_refIS0_11ast_managerE(ptr nocapture noundef nonnull readonly align 8 dereferenceable(73) %this, ptr noundef %arg1, ptr noundef %arg2, ptr nocapture noundef nonnull align 8 dereferenceable(16) %result) local_unnamed_addr #3 align 2 {
entry:
  %0 = load ptr, ptr %this, align 8
  %m_fid.i = getelementptr inbounds i8, ptr %this, i64 16
  %1 = load i32, ptr %m_fid.i, align 8
  %call2.i = tail call noundef ptr @_ZN11ast_manager6mk_appEiiP4exprS1_(ptr noundef nonnull align 8 dereferenceable(976) %0, i32 noundef %1, i32 noundef 26, ptr noundef %arg2, ptr noundef %arg1)
  %tobool.not.i = icmp eq ptr %call2.i, null
  br i1 %tobool.not.i, label %if.end.i, label %_ZN11ast_manager7inc_refEP3ast.exit.i

_ZN11ast_manager7inc_refEP3ast.exit.i:            ; preds = %entry
  %m_ref_count.i.i.i = getelementptr inbounds i8, ptr %call2.i, i64 8
  %2 = load i32, ptr %m_ref_count.i.i.i, align 4
  %inc.i.i.i = add i32 %2, 1
  store i32 %inc.i.i.i, ptr %m_ref_count.i.i.i, align 4
  br label %if.end.i

if.end.i:                                         ; preds = %_ZN11ast_manager7inc_refEP3ast.exit.i, %entry
  %3 = load ptr, ptr %result, align 8
  %tobool.not.i3.i = icmp eq ptr %3, null
  br i1 %tobool.not.i3.i, label %_ZN7obj_refI4expr11ast_managerEaSEPS0_.exit, label %if.then.i.i.i

if.then.i.i.i:                                    ; preds = %if.end.i
  %m_manager.i.i = getelementptr inbounds i8, ptr %result, i64 8
  %4 = load ptr, ptr %m_manager.i.i, align 8
  %m_ref_count.i.i.i.i = getelementptr inbounds i8, ptr %3, i64 8
  %5 = load i32, ptr %m_ref_count.i.i.i.i, align 4
  %dec.i.i.i.i = add i32 %5, -1
  store i32 %dec.i.i.i.i, ptr %m_ref_count.i.i.i.i, align 4
  %cmp.i.i.i = icmp eq i32 %dec.i.i.i.i, 0
  br i1 %cmp.i.i.i, label %if.then2.i.i.i, label %_ZN7obj_refI4expr11ast_managerEaSEPS0_.exit

if.then2.i.i.i:                                   ; preds = %if.then.i.i.i
  tail call void @_ZN11ast_manager11delete_nodeEP3ast(ptr noundef nonnull align 8 dereferenceable(976) %4, ptr noundef nonnull %3)
  br label %_ZN7obj_refI4expr11ast_managerEaSEPS0_.exit

_ZN7obj_refI4expr11ast_managerEaSEPS0_.exit:      ; preds = %if.end.i, %if.then.i.i.i, %if.then2.i.i.i
  store ptr %call2.i, ptr %result, align 8
  ret i32 0
}